; Function Attrs: mustprogress nofree norecurse nosync nounwind memory(readwrite, inaccessiblemem: none) uwtable
define hidden void @_ZN5zxing8BitArray7reverseEv(ptr noundef nonnull readonly align 8 captures(none) dereferenceable(88) %0) local_unnamed_addr #6 align 2 {
  %2 = getelementptr inbounds nuw i8, ptr %0, i64 32
  %3 = load ptr, ptr %2, align 8, !tbaa !17
  %4 = getelementptr inbounds nuw i8, ptr %3, i64 16
  %5 = load ptr, ptr %4, align 8, !tbaa !18
  %6 = getelementptr inbounds nuw i8, ptr %0, i64 12
  %7 = load i32, ptr %6, align 4, !tbaa !10
  %8 = icmp sgt i32 %7, 1
  br i1 %8, label %.lr.ph.preheader, label %._crit_edge

.lr.ph.preheader:                                 ; preds = %1
  %9 = lshr i32 %7, 1
  %10 = zext nneg i32 %7 to i64
  %wide.trip.count = zext nneg i32 %9 to i64
  %11 = getelementptr i8, ptr %5, i64 %10
  br label %.lr.ph

._crit_edge:                                      ; preds = %.lr.ph, %1
  ret void

.lr.ph:                                           ; preds = %.lr.ph.preheader, %.lr.ph
  %indvars.iv = phi i64 [ 0, %.lr.ph.preheader ], [ %indvars.iv.next, %.lr.ph ]
  %12 = getelementptr inbounds nuw i8, ptr %5, i64 %indvars.iv
  %13 = load i8, ptr %12, align 1, !tbaa !38, !range !40, !noundef !41
  %14 = xor i64 %indvars.iv, -1
  %15 = getelementptr i8, ptr %11, i64 %14
  %16 = load i8, ptr %15, align 1, !tbaa !38, !range !40, !noundef !41
  store i8 %16, ptr %12, align 1, !tbaa !38
  store i8 %13, ptr %15, align 1, !tbaa !38
  %indvars.iv.next = add nuw nsw i64 %indvars.iv, 1
  %exitcond.not = icmp eq i64 %indvars.iv.next, %wide.trip.count
  br i1 %exitcond.not, label %._crit_edge, label %.lr.ph, !llvm.loop !42
}